target datalayout = "e-m:e-p270:32:32-p271:32:32-p272:64:64-i64:64-i128:128-f80:128-n8:16:32:64-S128"
target triple = "x86_64-pc-linux-gnu"

%struct.AVFilterContext = type { ptr, ptr, ptr, ptr, ptr, i32, ptr, ptr, i32, ptr, ptr, i32, i32, ptr, ptr, ptr, ptr, i32, ptr, i32, i32 }
%struct.FFFilterContext = type { %struct.AVFilterContext, ptr, i32, i32, ptr, ptr, ptr }
%struct.FilterLinkInternal = type { %struct.FilterLink, ptr, %struct.FFFrameQueue, i32, i32, i64, i32, i32, i32, i32 }
%struct.FilterLink = type { %struct.AVFilterLink, ptr, i64, i64, i32, i32, i64, i64, i64, i64, %struct.AVRational, ptr }
%struct.AVFilterLink = type { ptr, ptr, ptr, ptr, i32, i32, i32, i32, %struct.AVRational, i32, i32, i32, %struct.AVChannelLayout, %struct.AVRational, ptr, i32, %struct.AVFilterFormatsConfig, %struct.AVFilterFormatsConfig }
%struct.AVChannelLayout = type { i32, i32, %union.anon.0, ptr }
%union.anon.0 = type { i64 }
%struct.AVFilterFormatsConfig = type { ptr, ptr, ptr, ptr, ptr }
%struct.AVRational = type { i32, i32 }
%struct.FFFrameQueue = type { ptr, i64, i64, i64, %struct.FFFrameBucket, i64, i64, i64, i64, i32 }
%struct.FFFrameBucket = type { ptr }
%struct.AVFilter = type { ptr, ptr, ptr, ptr, ptr, i32 }
%struct.AVFrame = type { [8 x ptr], [8 x i32], ptr, i32, i32, i32, i32, i32, %struct.AVRational, i64, i64, %struct.AVRational, i32, ptr, i32, i32, [8 x ptr], ptr, i32, ptr, i32, i32, i32, i32, i32, i32, i32, i64, ptr, i32, ptr, ptr, i64, i64, i64, i64, ptr, %struct.AVChannelLayout, i64 }

@.str.30 = private unnamed_addr constant [11 x i8] c"buffersink\00", align 1
@.str.31 = private unnamed_addr constant [7 x i8] c"format\00", align 1
@.str.32 = private unnamed_addr constant [5 x i8] c"idet\00", align 1
@.str.33 = private unnamed_addr constant [5 x i8] c"null\00", align 1
@.str.34 = private unnamed_addr constant [6 x i8] c"scale\00", align 1
@.str.35 = private unnamed_addr constant [32 x i8] c"Format change is not supported\0A\00", align 1
@.str.36 = private unnamed_addr constant [40 x i8] c"Channel layout change is not supported\0A\00", align 1
@.str.37 = private unnamed_addr constant [37 x i8] c"Sample rate change is not supported\0A\00", align 1

; Function Attrs: inlinehint nounwind uwtable
define internal ptr @fffilterctx(ptr noundef %0) #4 {
  %2 = alloca ptr, align 8
  store ptr %0, ptr %2, align 8, !tbaa !4
  %3 = load ptr, ptr %2, align 8, !tbaa !4
  ret ptr %3
}

; Function Attrs: nounwind uwtable
define void @ff_filter_set_ready(ptr noundef %0, i32 noundef %1) #0 {
  %3 = alloca ptr, align 8
  %4 = alloca i32, align 4
  %5 = alloca ptr, align 8
  store ptr %0, ptr %3, align 8, !tbaa !4
  store i32 %1, ptr %4, align 4, !tbaa !19
  call void @llvm.lifetime.start.p0(i64 8, ptr %5) #11
  %6 = load ptr, ptr %3, align 8, !tbaa !4
  %7 = call ptr @fffilterctx(ptr noundef %6)
  store ptr %7, ptr %5, align 8, !tbaa !74
  %8 = load ptr, ptr %5, align 8, !tbaa !74
  %9 = getelementptr inbounds nuw %struct.FFFilterContext, ptr %8, i32 0, i32 3
  %10 = load i32, ptr %9, align 4, !tbaa !76
  %11 = load i32, ptr %4, align 4, !tbaa !19
  %12 = icmp ugt i32 %10, %11
  br i1 %12, label %13, label %17

13:                                               ; preds = %2
  %14 = load ptr, ptr %5, align 8, !tbaa !74
  %15 = getelementptr inbounds nuw %struct.FFFilterContext, ptr %14, i32 0, i32 3
  %16 = load i32, ptr %15, align 4, !tbaa !76
  br label %19

17:                                               ; preds = %2
  %18 = load i32, ptr %4, align 4, !tbaa !19
  br label %19

19:                                               ; preds = %17, %13
  %20 = phi i32 [ %16, %13 ], [ %18, %17 ]
  %21 = load ptr, ptr %5, align 8, !tbaa !74
  %22 = getelementptr inbounds nuw %struct.FFFilterContext, ptr %21, i32 0, i32 3
  store i32 %20, ptr %22, align 4, !tbaa !76
  call void @llvm.lifetime.end.p0(i64 8, ptr %5) #11
  ret void
}

; Function Attrs: nounwind uwtable
define internal void @filter_unblock(ptr noundef %0) #0 {
  %2 = alloca ptr, align 8
  %3 = alloca i32, align 4
  %4 = alloca ptr, align 8
  store ptr %0, ptr %2, align 8, !tbaa !4
  call void @llvm.lifetime.start.p0(i64 4, ptr %3) #11
  store i32 0, ptr %3, align 4, !tbaa !19
  br label %5

5:                                                ; preds = %22, %1
  %6 = load i32, ptr %3, align 4, !tbaa !19
  %7 = load ptr, ptr %2, align 8, !tbaa !4
  %8 = getelementptr inbounds nuw %struct.AVFilterContext, ptr %7, i32 0, i32 8
  %9 = load i32, ptr %8, align 8, !tbaa !36
  %10 = icmp ult i32 %6, %9
  br i1 %10, label %11, label %25

11:                                               ; preds = %5
  call void @llvm.lifetime.start.p0(i64 8, ptr %4) #11
  %12 = load ptr, ptr %2, align 8, !tbaa !4
  %13 = getelementptr inbounds nuw %struct.AVFilterContext, ptr %12, i32 0, i32 7
  %14 = load ptr, ptr %13, align 8, !tbaa !38
  %15 = load i32, ptr %3, align 4, !tbaa !19
  %16 = zext i32 %15 to i64
  %17 = getelementptr inbounds nuw ptr, ptr %14, i64 %16
  %18 = load ptr, ptr %17, align 8, !tbaa !26
  %19 = call ptr @ff_link_internal(ptr noundef %18)
  store ptr %19, ptr %4, align 8, !tbaa !47
  %20 = load ptr, ptr %4, align 8, !tbaa !47
  %21 = getelementptr inbounds nuw %struct.FilterLinkInternal, ptr %20, i32 0, i32 3
  store i32 0, ptr %21, align 8, !tbaa !81
  call void @llvm.lifetime.end.p0(i64 8, ptr %4) #11
  br label %22

22:                                               ; preds = %11
  %23 = load i32, ptr %3, align 4, !tbaa !19
  %24 = add i32 %23, 1
  store i32 %24, ptr %3, align 4, !tbaa !19
  br label %5, !llvm.loop !82

25:                                               ; preds = %5
  call void @llvm.lifetime.end.p0(i64 4, ptr %3) #11
  ret void
}

; Function Attrs: nounwind uwtable
define internal void @tlog_ref(ptr noundef %0, ptr noundef %1, i32 noundef %2) #0 {
  %4 = alloca ptr, align 8
  %5 = alloca ptr, align 8
  %6 = alloca i32, align 4
  store ptr %0, ptr %4, align 8, !tbaa !72
  store ptr %1, ptr %5, align 8, !tbaa !183
  store i32 %2, ptr %6, align 4, !tbaa !19
  ret void
}

; Function Attrs: inlinehint nounwind uwtable
define internal ptr @ff_link_internal(ptr noundef %0) #4 {
  %2 = alloca ptr, align 8
  store ptr %0, ptr %2, align 8, !tbaa !26
  %3 = load ptr, ptr %2, align 8, !tbaa !26
  ret ptr %3
}

; Function Attrs: nounwind uwtable
define i32 @ff_filter_frame(ptr noundef %0, ptr noundef %1) #0 {
  %3 = alloca i32, align 4
  %4 = alloca ptr, align 8
  %5 = alloca ptr, align 8
  %6 = alloca ptr, align 8
  %7 = alloca i32, align 4
  %8 = alloca %struct.AVRational, align 4
  %9 = alloca i32, align 4
  store ptr %0, ptr %4, align 8, !tbaa !26
  store ptr %1, ptr %5, align 8, !tbaa !183
  call void @llvm.lifetime.start.p0(i64 8, ptr %6) #11
  %10 = load ptr, ptr %4, align 8, !tbaa !26
  %11 = call ptr @ff_link_internal(ptr noundef %10)
  store ptr %11, ptr %6, align 8, !tbaa !47
  call void @llvm.lifetime.start.p0(i64 4, ptr %7) #11
  br label %12

12:                                               ; preds = %2
  br label %13

13:                                               ; preds = %12
  br label %14

14:                                               ; preds = %13
  br label %15

15:                                               ; preds = %14
  br label %16

16:                                               ; preds = %15
  br label %17

17:                                               ; preds = %16
  br label %18

18:                                               ; preds = %17
  br label %19

19:                                               ; preds = %18
  br label %20

20:                                               ; preds = %19
  %21 = load ptr, ptr %5, align 8, !tbaa !183
  call void @tlog_ref(ptr noundef null, ptr noundef %21, i32 noundef 1)
  %22 = load ptr, ptr %4, align 8, !tbaa !26
  %23 = getelementptr inbounds nuw %struct.AVFilterLink, ptr %22, i32 0, i32 4
  %24 = load i32, ptr %23, align 8, !tbaa !60
  %25 = icmp eq i32 %24, 0
  br i1 %25, label %26, label %82

26:                                               ; preds = %20
  %27 = load ptr, ptr %4, align 8, !tbaa !26
  %28 = getelementptr inbounds nuw %struct.AVFilterLink, ptr %27, i32 0, i32 2
  %29 = load ptr, ptr %28, align 8, !tbaa !57
  %30 = getelementptr inbounds nuw %struct.AVFilterContext, ptr %29, i32 0, i32 1
  %31 = load ptr, ptr %30, align 8, !tbaa !110
  %32 = getelementptr inbounds nuw %struct.AVFilter, ptr %31, i32 0, i32 0
  %33 = load ptr, ptr %32, align 8, !tbaa !125
  %34 = call i32 @strcmp(ptr noundef %33, ptr noundef @.str.30) #13
  %35 = icmp ne i32 %34, 0
  br i1 %35, label %36, label %77

36:                                               ; preds = %26
  %37 = load ptr, ptr %4, align 8, !tbaa !26
  %38 = getelementptr inbounds nuw %struct.AVFilterLink, ptr %37, i32 0, i32 2
  %39 = load ptr, ptr %38, align 8, !tbaa !57
  %40 = getelementptr inbounds nuw %struct.AVFilterContext, ptr %39, i32 0, i32 1
  %41 = load ptr, ptr %40, align 8, !tbaa !110
  %42 = getelementptr inbounds nuw %struct.AVFilter, ptr %41, i32 0, i32 0
  %43 = load ptr, ptr %42, align 8, !tbaa !125
  %44 = call i32 @strcmp(ptr noundef %43, ptr noundef @.str.31) #13
  %45 = icmp ne i32 %44, 0
  br i1 %45, label %46, label %77

46:                                               ; preds = %36
  %47 = load ptr, ptr %4, align 8, !tbaa !26
  %48 = getelementptr inbounds nuw %struct.AVFilterLink, ptr %47, i32 0, i32 2
  %49 = load ptr, ptr %48, align 8, !tbaa !57
  %50 = getelementptr inbounds nuw %struct.AVFilterContext, ptr %49, i32 0, i32 1
  %51 = load ptr, ptr %50, align 8, !tbaa !110
  %52 = getelementptr inbounds nuw %struct.AVFilter, ptr %51, i32 0, i32 0
  %53 = load ptr, ptr %52, align 8, !tbaa !125
  %54 = call i32 @strcmp(ptr noundef %53, ptr noundef @.str.32) #13
  %55 = icmp ne i32 %54, 0
  br i1 %55, label %56, label %77

56:                                               ; preds = %46
  %57 = load ptr, ptr %4, align 8, !tbaa !26
  %58 = getelementptr inbounds nuw %struct.AVFilterLink, ptr %57, i32 0, i32 2
  %59 = load ptr, ptr %58, align 8, !tbaa !57
  %60 = getelementptr inbounds nuw %struct.AVFilterContext, ptr %59, i32 0, i32 1
  %61 = load ptr, ptr %60, align 8, !tbaa !110
  %62 = getelementptr inbounds nuw %struct.AVFilter, ptr %61, i32 0, i32 0
  %63 = load ptr, ptr %62, align 8, !tbaa !125
  %64 = call i32 @strcmp(ptr noundef %63, ptr noundef @.str.33) #13
  %65 = icmp ne i32 %64, 0
  br i1 %65, label %66, label %77

66:                                               ; preds = %56
  %67 = load ptr, ptr %4, align 8, !tbaa !26
  %68 = getelementptr inbounds nuw %struct.AVFilterLink, ptr %67, i32 0, i32 2
  %69 = load ptr, ptr %68, align 8, !tbaa !57
  %70 = getelementptr inbounds nuw %struct.AVFilterContext, ptr %69, i32 0, i32 1
  %71 = load ptr, ptr %70, align 8, !tbaa !110
  %72 = getelementptr inbounds nuw %struct.AVFilter, ptr %71, i32 0, i32 0
  %73 = load ptr, ptr %72, align 8, !tbaa !125
  %74 = call i32 @strcmp(ptr noundef %73, ptr noundef @.str.34) #13
  %75 = icmp ne i32 %74, 0
  br i1 %75, label %76, label %77

76:                                               ; preds = %66
  br label %77

77:                                               ; preds = %76, %66, %56, %46, %36, %26
  %78 = load ptr, ptr %5, align 8, !tbaa !183
  %79 = getelementptr inbounds nuw %struct.AVFrame, ptr %78, i32 0, i32 8
  %80 = load ptr, ptr %4, align 8, !tbaa !26
  %81 = getelementptr inbounds nuw %struct.AVFilterLink, ptr %80, i32 0, i32 8
  call void @llvm.memcpy.p0.p0.i64(ptr align 4 %79, ptr align 8 %81, i64 8, i1 false), !tbaa.struct !100
  br label %134

82:                                               ; preds = %20
  %83 = load ptr, ptr %5, align 8, !tbaa !183
  %84 = getelementptr inbounds nuw %struct.AVFrame, ptr %83, i32 0, i32 6
  %85 = load i32, ptr %84, align 4, !tbaa !184
  %86 = load ptr, ptr %4, align 8, !tbaa !26
  %87 = getelementptr inbounds nuw %struct.AVFilterLink, ptr %86, i32 0, i32 5
  %88 = load i32, ptr %87, align 4, !tbaa !70
  %89 = icmp ne i32 %85, %88
  br i1 %89, label %90, label %94

90:                                               ; preds = %82
  %91 = load ptr, ptr %4, align 8, !tbaa !26
  %92 = getelementptr inbounds nuw %struct.AVFilterLink, ptr %91, i32 0, i32 2
  %93 = load ptr, ptr %92, align 8, !tbaa !57
  call void (ptr, i32, ptr, ...) @av_log(ptr noundef %93, i32 noundef 16, ptr noundef @.str.35)
  br label %168

94:                                               ; preds = %82
  %95 = load ptr, ptr %5, align 8, !tbaa !183
  %96 = getelementptr inbounds nuw %struct.AVFrame, ptr %95, i32 0, i32 37
  %97 = load ptr, ptr %4, align 8, !tbaa !26
  %98 = getelementptr inbounds nuw %struct.AVFilterLink, ptr %97, i32 0, i32 12
  %99 = call i32 @av_channel_layout_compare(ptr noundef %96, ptr noundef %98)
  %100 = icmp ne i32 %99, 0
  br i1 %100, label %101, label %105

101:                                              ; preds = %94
  %102 = load ptr, ptr %4, align 8, !tbaa !26
  %103 = getelementptr inbounds nuw %struct.AVFilterLink, ptr %102, i32 0, i32 2
  %104 = load ptr, ptr %103, align 8, !tbaa !57
  call void (ptr, i32, ptr, ...) @av_log(ptr noundef %104, i32 noundef 16, ptr noundef @.str.36)
  br label %168

105:                                              ; preds = %94
  %106 = load ptr, ptr %5, align 8, !tbaa !183
  %107 = getelementptr inbounds nuw %struct.AVFrame, ptr %106, i32 0, i32 15
  %108 = load i32, ptr %107, align 4, !tbaa !188
  %109 = load ptr, ptr %4, align 8, !tbaa !26
  %110 = getelementptr inbounds nuw %struct.AVFilterLink, ptr %109, i32 0, i32 11
  %111 = load i32, ptr %110, align 8, !tbaa !109
  %112 = icmp ne i32 %108, %111
  br i1 %112, label %113, label %117

113:                                              ; preds = %105
  %114 = load ptr, ptr %4, align 8, !tbaa !26
  %115 = getelementptr inbounds nuw %struct.AVFilterLink, ptr %114, i32 0, i32 2
  %116 = load ptr, ptr %115, align 8, !tbaa !57
  call void (ptr, i32, ptr, ...) @av_log(ptr noundef %116, i32 noundef 16, ptr noundef @.str.37)
  br label %168

117:                                              ; preds = %105
  %118 = load ptr, ptr %5, align 8, !tbaa !183
  %119 = getelementptr inbounds nuw %struct.AVFrame, ptr %118, i32 0, i32 5
  %120 = load i32, ptr %119, align 8, !tbaa !189
  %121 = sext i32 %120 to i64
  %122 = getelementptr inbounds nuw %struct.AVRational, ptr %8, i32 0, i32 0
  store i32 1, ptr %122, align 4, !tbaa !101
  %123 = getelementptr inbounds nuw %struct.AVRational, ptr %8, i32 0, i32 1
  %124 = load ptr, ptr %5, align 8, !tbaa !183
  %125 = getelementptr inbounds nuw %struct.AVFrame, ptr %124, i32 0, i32 15
  %126 = load i32, ptr %125, align 4, !tbaa !188
  store i32 %126, ptr %123, align 4, !tbaa !102
  %127 = load ptr, ptr %4, align 8, !tbaa !26
  %128 = getelementptr inbounds nuw %struct.AVFilterLink, ptr %127, i32 0, i32 13
  %129 = load i64, ptr %8, align 4
  %130 = load i64, ptr %128, align 8
  %131 = call i64 @av_rescale_q(i64 noundef %121, i64 %129, i64 %130) #14
  %132 = load ptr, ptr %5, align 8, !tbaa !183
  %133 = getelementptr inbounds nuw %struct.AVFrame, ptr %132, i32 0, i32 38
  store i64 %131, ptr %133, align 8, !tbaa !190
  br label %134

134:                                              ; preds = %117, %77
  %135 = load ptr, ptr %6, align 8, !tbaa !47
  %136 = getelementptr inbounds nuw %struct.FilterLinkInternal, ptr %135, i32 0, i32 7
  store i32 0, ptr %136, align 4, !tbaa !80
  %137 = load ptr, ptr %6, align 8, !tbaa !47
  %138 = getelementptr inbounds nuw %struct.FilterLinkInternal, ptr %137, i32 0, i32 3
  store i32 0, ptr %138, align 8, !tbaa !81
  %139 = load ptr, ptr %6, align 8, !tbaa !47
  %140 = getelementptr inbounds nuw %struct.FilterLinkInternal, ptr %139, i32 0, i32 0
  %141 = getelementptr inbounds nuw %struct.FilterLink, ptr %140, i32 0, i32 6
  %142 = load i64, ptr %141, align 8, !tbaa !191
  %143 = add nsw i64 %142, 1
  store i64 %143, ptr %141, align 8, !tbaa !191
  %144 = load ptr, ptr %5, align 8, !tbaa !183
  %145 = getelementptr inbounds nuw %struct.AVFrame, ptr %144, i32 0, i32 5
  %146 = load i32, ptr %145, align 8, !tbaa !189
  %147 = sext i32 %146 to i64
  %148 = load ptr, ptr %6, align 8, !tbaa !47
  %149 = getelementptr inbounds nuw %struct.FilterLinkInternal, ptr %148, i32 0, i32 0
  %150 = getelementptr inbounds nuw %struct.FilterLink, ptr %149, i32 0, i32 8
  %151 = load i64, ptr %150, align 8, !tbaa !192
  %152 = add nsw i64 %151, %147
  store i64 %152, ptr %150, align 8, !tbaa !192
  %153 = load ptr, ptr %4, align 8, !tbaa !26
  %154 = getelementptr inbounds nuw %struct.AVFilterLink, ptr %153, i32 0, i32 2
  %155 = load ptr, ptr %154, align 8, !tbaa !57
  call void @filter_unblock(ptr noundef %155)
  %156 = load ptr, ptr %6, align 8, !tbaa !47
  %157 = getelementptr inbounds nuw %struct.FilterLinkInternal, ptr %156, i32 0, i32 2
  %158 = load ptr, ptr %5, align 8, !tbaa !183
  %159 = call i32 @ff_framequeue_add(ptr noundef %157, ptr noundef %158)
  store i32 %159, ptr %7, align 4, !tbaa !19
  %160 = load i32, ptr %7, align 4, !tbaa !19
  %161 = icmp slt i32 %160, 0
  br i1 %161, label %162, label %164

162:                                              ; preds = %134
  call void @av_frame_free(ptr noundef %5)
  %163 = load i32, ptr %7, align 4, !tbaa !19
  store i32 %163, ptr %3, align 4
  store i32 1, ptr %9, align 4
  br label %169

164:                                              ; preds = %134
  %165 = load ptr, ptr %4, align 8, !tbaa !26
  %166 = getelementptr inbounds nuw %struct.AVFilterLink, ptr %165, i32 0, i32 2
  %167 = load ptr, ptr %166, align 8, !tbaa !57
  call void @ff_filter_set_ready(ptr noundef %167, i32 noundef 300)
  store i32 0, ptr %3, align 4
  store i32 1, ptr %9, align 4
  br label %169

168:                                              ; preds = %113, %101, %90
  call void @av_frame_free(ptr noundef %5)
  store i32 -1163346256, ptr %3, align 4
  store i32 1, ptr %9, align 4
  br label %169

169:                                              ; preds = %168, %164, %162
  call void @llvm.lifetime.end.p0(i64 4, ptr %7) #11
  call void @llvm.lifetime.end.p0(i64 8, ptr %6) #11
  %170 = load i32, ptr %3, align 4
  ret i32 %170
}