; Function Attrs: nounwind uwtable
define range(i32 -2147483648, 1) i32 @ff_filter_frame(ptr noundef %0, ptr noundef %1) local_unnamed_addr #0 {
  %3 = alloca ptr, align 8
  store ptr %1, ptr %3, align 8, !tbaa !151
  %4 = getelementptr inbounds nuw i8, ptr %0, i64 32
  %5 = load i32, ptr %4, align 8, !tbaa !50
  %6 = icmp eq i32 %5, 0
  br i1 %6, label %7, label %11

7:                                                ; preds = %2
  %8 = getelementptr inbounds nuw i8, ptr %1, i64 124
  %9 = getelementptr inbounds nuw i8, ptr %0, i64 48
  %10 = load i64, ptr %9, align 8
  store i64 %10, ptr %8, align 4
  %.phi.trans.insert = getelementptr inbounds nuw i8, ptr %1, i64 112
  %.pre = load i32, ptr %.phi.trans.insert, align 8, !tbaa !152
  %.pre24 = sext i32 %.pre to i64
  br label %33

11:                                               ; preds = %2
  %12 = getelementptr inbounds nuw i8, ptr %1, i64 116
  %13 = load i32, ptr %12, align 4, !tbaa !156
  %14 = getelementptr inbounds nuw i8, ptr %0, i64 36
  %15 = load i32, ptr %14, align 4, !tbaa !60
  %.not = icmp eq i32 %13, %15
  br i1 %.not, label %16, label %60

16:                                               ; preds = %11
  %17 = getelementptr inbounds nuw i8, ptr %1, i64 384
  %18 = getelementptr inbounds nuw i8, ptr %0, i64 72
  %19 = tail call i32 @av_channel_layout_compare(ptr noundef nonnull %17, ptr noundef nonnull %18) #15
  %.not22 = icmp eq i32 %19, 0
  br i1 %.not22, label %20, label %60

20:                                               ; preds = %16
  %21 = getelementptr inbounds nuw i8, ptr %1, i64 180
  %22 = load i32, ptr %21, align 4, !tbaa !157
  %23 = getelementptr inbounds nuw i8, ptr %0, i64 64
  %24 = load i32, ptr %23, align 8, !tbaa !91
  %.not23 = icmp eq i32 %22, %24
  br i1 %.not23, label %25, label %60

25:                                               ; preds = %20
  %26 = getelementptr inbounds nuw i8, ptr %1, i64 112
  %27 = load i32, ptr %26, align 8, !tbaa !152
  %28 = sext i32 %27 to i64
  %29 = getelementptr inbounds nuw i8, ptr %0, i64 96
  %.sroa.2.0.insert.ext = zext i32 %22 to i64
  %.sroa.2.0.insert.shift = shl nuw i64 %.sroa.2.0.insert.ext, 32
  %.sroa.0.0.insert.insert = or disjoint i64 %.sroa.2.0.insert.shift, 1
  %30 = load i64, ptr %29, align 8
  %31 = tail call i64 @av_rescale_q(i64 noundef %28, i64 %.sroa.0.0.insert.insert, i64 %30) #17
  %32 = getelementptr inbounds nuw i8, ptr %1, i64 408
  store i64 %31, ptr %32, align 8, !tbaa !158
  br label %33

33:                                               ; preds = %25, %7
  %.pre-phi = phi i64 [ %28, %25 ], [ %.pre24, %7 ]
  %34 = getelementptr inbounds nuw i8, ptr %0, i64 388
  store i32 0, ptr %34, align 4, !tbaa !65
  %35 = getelementptr inbounds nuw i8, ptr %0, i64 368
  store i32 0, ptr %35, align 8, !tbaa !66
  %36 = getelementptr inbounds nuw i8, ptr %0, i64 232
  %37 = load i64, ptr %36, align 8, !tbaa !159
  %38 = add nsw i64 %37, 1
  store i64 %38, ptr %36, align 8, !tbaa !159
  %39 = getelementptr inbounds nuw i8, ptr %0, i64 248
  %40 = load i64, ptr %39, align 8, !tbaa !160
  %41 = add nsw i64 %40, %.pre-phi
  store i64 %41, ptr %39, align 8, !tbaa !160
  %42 = getelementptr inbounds nuw i8, ptr %0, i64 16
  %43 = load ptr, ptr %42, align 8, !tbaa !47
  %44 = getelementptr inbounds nuw i8, ptr %43, i64 64
  %45 = load i32, ptr %44, align 8, !tbaa !27
  %.not.i = icmp eq i32 %45, 0
  br i1 %.not.i, label %filter_unblock.exit, label %.lr.ph.i

.lr.ph.i:                                         ; preds = %33
  %46 = getelementptr inbounds nuw i8, ptr %43, i64 56
  %47 = load ptr, ptr %46, align 8, !tbaa !29
  %wide.trip.count.i = zext i32 %45 to i64
  br label %48

48:                                               ; preds = %48, %.lr.ph.i
  %indvars.iv.i = phi i64 [ 0, %.lr.ph.i ], [ %indvars.iv.next.i, %48 ]
  %49 = getelementptr inbounds nuw ptr, ptr %47, i64 %indvars.iv.i
  %50 = load ptr, ptr %49, align 8, !tbaa !17
  %51 = getelementptr inbounds nuw i8, ptr %50, i64 368
  store i32 0, ptr %51, align 8, !tbaa !66
  %indvars.iv.next.i = add nuw nsw i64 %indvars.iv.i, 1
  %exitcond.not.i = icmp eq i64 %indvars.iv.next.i, %wide.trip.count.i
  br i1 %exitcond.not.i, label %filter_unblock.exit, label %48, !llvm.loop !67

filter_unblock.exit:                              ; preds = %48, %33
  %52 = getelementptr inbounds nuw i8, ptr %0, i64 288
  %53 = tail call i32 @ff_framequeue_add(ptr noundef nonnull %52, ptr noundef nonnull %1) #15
  %54 = icmp slt i32 %53, 0
  br i1 %54, label %55, label %56

55:                                               ; preds = %filter_unblock.exit
  call void @av_frame_free(ptr noundef nonnull %3) #15
  br label %63

56:                                               ; preds = %filter_unblock.exit
  %57 = load ptr, ptr %42, align 8, !tbaa !47
  %58 = getelementptr inbounds nuw i8, ptr %57, i64 164
  %59 = load i32, ptr %58, align 4, !tbaa !62
  %..i = tail call i32 @llvm.umax.i32(i32 %59, i32 300)
  store i32 %..i, ptr %58, align 4, !tbaa !62
  br label %63

60:                                               ; preds = %20, %16, %11
  %.str.37.sink = phi ptr [ @.str.35, %11 ], [ @.str.36, %16 ], [ @.str.37, %20 ]
  %61 = getelementptr inbounds nuw i8, ptr %0, i64 16
  %62 = load ptr, ptr %61, align 8, !tbaa !47
  tail call void (ptr, i32, ptr, ...) @av_log(ptr noundef %62, i32 noundef 16, ptr noundef nonnull %.str.37.sink) #15
  call void @av_frame_free(ptr noundef nonnull %3) #15
  br label %63

63:                                               ; preds = %60, %56, %55
  %.0 = phi i32 [ %53, %55 ], [ 0, %56 ], [ -1163346256, %60 ]
  ret i32 %.0
}